; Function Attrs: nounwind uwtable
define dso_local void @doc_ast_copy(ptr noundef %0, ptr nocapture noundef %1) local_unnamed_addr #0 {
  %3 = load i8, ptr %1, align 8
  %4 = and i8 %3, 15
  switch i8 %4, label %49 [
    i8 2, label %5
    i8 5, label %5
    i8 4, label %9
  ]

5:                                                ; preds = %2, %2
  %6 = getelementptr inbounds i8, ptr %1, i64 8
  %7 = load ptr, ptr %6, align 8
  %8 = tail call fastcc ptr @copy_expr(ptr noundef %0, ptr noundef %7)
  store ptr %8, ptr %6, align 8
  br label %49

9:                                                ; preds = %2
  %10 = getelementptr inbounds i8, ptr %1, i64 8
  %11 = load ptr, ptr %10, align 8
  %.not.i = icmp eq ptr %11, null
  br i1 %.not.i, label %copy_ast_list.exit, label %12

12:                                               ; preds = %9
  %13 = getelementptr inbounds i8, ptr %11, i64 -8
  %14 = load i32, ptr %13, align 4
  %.not27.i = icmp eq i32 %14, 0
  br i1 %.not27.i, label %copy_ast_list.exit, label %.lr.ph.preheader.i

.lr.ph.preheader.i:                               ; preds = %12
  %wide.trip.count.i = zext i32 %14 to i64
  br label %.lr.ph.i

.lr.ph.i:                                         ; preds = %38, %.lr.ph.preheader.i
  %indvars.iv.i = phi i64 [ 0, %.lr.ph.preheader.i ], [ %indvars.iv.next.i, %38 ]
  %.02125.i = phi ptr [ null, %.lr.ph.preheader.i ], [ %41, %38 ]
  %.not.i.i = icmp eq ptr %.02125.i, null
  br i1 %.not.i.i, label %15, label %18

15:                                               ; preds = %.lr.ph.i
  %16 = tail call ptr @calloc_arena(i64 noundef 72) #5
  %17 = getelementptr inbounds i8, ptr %16, i64 4
  store i32 8, ptr %17, align 4
  br label %20

18:                                               ; preds = %.lr.ph.i
  %19 = getelementptr inbounds i8, ptr %.02125.i, i64 -8
  %.phi.trans.insert.i.i = getelementptr inbounds i8, ptr %.02125.i, i64 -4
  %.pre.i.i = load i32, ptr %.phi.trans.insert.i.i, align 4
  br label %20

20:                                               ; preds = %18, %15
  %21 = phi i32 [ %.pre.i.i, %18 ], [ 8, %15 ]
  %.0.i.i = phi ptr [ %19, %18 ], [ %16, %15 ]
  %22 = load i32, ptr %.0.i.i, align 4
  %23 = icmp eq i32 %22, %21
  br i1 %23, label %24, label %38

24:                                               ; preds = %20
  %25 = getelementptr inbounds i8, ptr %.0.i.i, i64 4
  %26 = shl i32 %21, 1
  %27 = zext i32 %26 to i64
  %28 = shl nuw nsw i64 %27, 3
  %29 = or disjoint i64 %28, 8
  %30 = tail call ptr @calloc_arena(i64 noundef %29) #5
  %31 = getelementptr inbounds i8, ptr %30, i64 4
  store i32 %26, ptr %31, align 4
  %32 = load i32, ptr %25, align 4
  %33 = zext i32 %32 to i64
  %34 = shl nuw nsw i64 %33, 3
  %35 = add nuw nsw i64 %34, 8
  tail call void @llvm.memcpy.p0.p0.i64(ptr noundef nonnull align 4 dereferenceable(1) %30, ptr noundef nonnull align 4 dereferenceable(1) %.0.i.i, i64 %35, i1 false)
  %36 = load i32, ptr %31, align 4
  %37 = shl i32 %36, 1
  store i32 %37, ptr %31, align 4
  %.pre18.i.i = load i32, ptr %30, align 4
  br label %38

38:                                               ; preds = %24, %20
  %39 = phi i32 [ %.pre18.i.i, %24 ], [ %22, %20 ]
  %.1.i.i = phi ptr [ %30, %24 ], [ %.0.i.i, %20 ]
  %40 = add i32 %39, 1
  store i32 %40, ptr %.1.i.i, align 4
  %41 = getelementptr inbounds i8, ptr %.1.i.i, i64 8
  %42 = getelementptr inbounds ptr, ptr %11, i64 %indvars.iv.i
  %43 = load ptr, ptr %42, align 8
  %44 = tail call fastcc ptr @ast_copy_deep(ptr noundef %0, ptr noundef %43)
  %45 = load i32, ptr %.1.i.i, align 4
  %46 = add i32 %45, -1
  %47 = zext i32 %46 to i64
  %48 = getelementptr inbounds ptr, ptr %41, i64 %47
  store ptr %44, ptr %48, align 8
  %indvars.iv.next.i = add nuw nsw i64 %indvars.iv.i, 1
  %exitcond.not.i = icmp eq i64 %indvars.iv.next.i, %wide.trip.count.i
  br i1 %exitcond.not.i, label %copy_ast_list.exit, label %.lr.ph.i, !llvm.loop !9

copy_ast_list.exit:                               ; preds = %38, %9, %12
  %.021.lcssa.i = phi ptr [ null, %12 ], [ null, %9 ], [ %41, %38 ]
  store ptr %.021.lcssa.i, ptr %10, align 8
  br label %49

49:                                               ; preds = %copy_ast_list.exit, %5, %2
  ret void
}